target datalayout = "e-m:e-p270:32:32-p271:32:32-p272:64:64-i64:64-i128:128-f80:128-n8:16:32:64-S128"
target triple = "x86_64-pc-linux-gnu"

%"class.icu_77::RelativeDateFormat" = type { %"class.icu_77::DateFormat", ptr, %"class.icu_77::UnicodeString", %"class.icu_77::UnicodeString", ptr, i32, [4 x i8], %"class.icu_77::Locale", i32, ptr, i8, i8, i8, i8, ptr }
%"class.icu_77::DateFormat" = type { %"class.icu_77::Format", ptr, ptr, %"class.icu_77::EnumSet", i32 }
%"class.icu_77::Format" = type { %"class.icu_77::UObject", ptr, ptr }
%"class.icu_77::UObject" = type { ptr }
%"class.icu_77::EnumSet" = type { i32 }
%"class.icu_77::UnicodeString" = type { %"class.icu_77::Replaceable", %"union.icu_77::UnicodeString::StackBufferOrFields" }
%"class.icu_77::Replaceable" = type { %"class.icu_77::UObject" }
%"union.icu_77::UnicodeString::StackBufferOrFields" = type { %struct.anon.0, [32 x i8] }
%struct.anon.0 = type { i16, i32, i32, ptr }
%"class.icu_77::Locale" = type <{ %"class.icu_77::UObject", [12 x i8], [6 x i8], [4 x i8], [2 x i8], i32, [4 x i8], ptr, [157 x i8], [3 x i8], ptr, i8, [7 x i8] }>
%struct.anon = type { i16, [27 x i16] }

; Function Attrs: inlinehint mustprogress nounwind uwtable
define linkonce_odr noundef ptr @_ZNK6icu_7713UnicodeString13getArrayStartEv(ptr noundef nonnull align 8 dereferenceable(64) %0) #7 comdat align 2 {
  %2 = alloca ptr, align 8
  store ptr %0, ptr %2, align 8, !tbaa !49
  %3 = load ptr, ptr %2, align 8
  %4 = getelementptr inbounds nuw %"class.icu_77::UnicodeString", ptr %3, i32 0, i32 1
  %5 = getelementptr inbounds nuw %struct.anon.0, ptr %4, i32 0, i32 0
  %6 = load i16, ptr %5, align 8, !tbaa !51
  %7 = sext i16 %6 to i32
  %8 = and i32 %7, 2
  %9 = icmp ne i32 %8, 0
  br i1 %9, label %10, label %14

10:                                               ; preds = %1
  %11 = getelementptr inbounds nuw %"class.icu_77::UnicodeString", ptr %3, i32 0, i32 1
  %12 = getelementptr inbounds nuw %struct.anon, ptr %11, i32 0, i32 1
  %13 = getelementptr inbounds [27 x i16], ptr %12, i64 0, i64 0
  br label %18

14:                                               ; preds = %1
  %15 = getelementptr inbounds nuw %"class.icu_77::UnicodeString", ptr %3, i32 0, i32 1
  %16 = getelementptr inbounds nuw %struct.anon.0, ptr %15, i32 0, i32 3
  %17 = load ptr, ptr %16, align 8, !tbaa !51
  br label %18

18:                                               ; preds = %14, %10
  %19 = phi ptr [ %13, %10 ], [ %17, %14 ]
  ret ptr %19
}

; Function Attrs: inlinehint mustprogress nounwind uwtable
define linkonce_odr noundef i32 @_ZNK6icu_7713UnicodeString14getShortLengthEv(ptr noundef nonnull align 8 dereferenceable(64) %0) #7 comdat align 2 {
  %2 = alloca ptr, align 8
  store ptr %0, ptr %2, align 8, !tbaa !49
  %3 = load ptr, ptr %2, align 8
  %4 = getelementptr inbounds nuw %"class.icu_77::UnicodeString", ptr %3, i32 0, i32 1
  %5 = getelementptr inbounds nuw %struct.anon.0, ptr %4, i32 0, i32 0
  %6 = load i16, ptr %5, align 8, !tbaa !51
  %7 = sext i16 %6 to i32
  %8 = ashr i32 %7, 5
  ret i32 %8
}

; Function Attrs: inlinehint mustprogress nounwind uwtable
define linkonce_odr noundef signext i8 @_ZNK6icu_7713UnicodeString14hasShortLengthEv(ptr noundef nonnull align 8 dereferenceable(64) %0) #7 comdat align 2 {
  %2 = alloca ptr, align 8
  store ptr %0, ptr %2, align 8, !tbaa !49
  %3 = load ptr, ptr %2, align 8
  %4 = getelementptr inbounds nuw %"class.icu_77::UnicodeString", ptr %3, i32 0, i32 1
  %5 = getelementptr inbounds nuw %struct.anon.0, ptr %4, i32 0, i32 0
  %6 = load i16, ptr %5, align 8, !tbaa !51
  %7 = sext i16 %6 to i32
  %8 = icmp sge i32 %7, 0
  %9 = zext i1 %8 to i8
  ret i8 %9
}

; Function Attrs: inlinehint mustprogress uwtable
define linkonce_odr noundef signext i8 @_ZNK6icu_7713UnicodeString8doEqualsERKS0_i(ptr noundef nonnull align 8 dereferenceable(64) %0, ptr noundef nonnull align 8 dereferenceable(64) %1, i32 noundef %2) #6 comdat align 2 {
  %4 = alloca ptr, align 8
  %5 = alloca ptr, align 8
  %6 = alloca i32, align 4
  store ptr %0, ptr %4, align 8, !tbaa !49
  store ptr %1, ptr %5, align 8, !tbaa !49
  store i32 %2, ptr %6, align 4, !tbaa !57
  %7 = load ptr, ptr %4, align 8
  %8 = load ptr, ptr %5, align 8, !tbaa !49
  %9 = call noundef ptr @_ZNK6icu_7713UnicodeString13getArrayStartEv(ptr noundef nonnull align 8 dereferenceable(64) %8)
  %10 = load i32, ptr %6, align 4, !tbaa !57
  %11 = call noundef signext i8 @_ZNK6icu_7713UnicodeString8doEqualsEPKDsi(ptr noundef nonnull align 8 dereferenceable(64) %7, ptr noundef %9, i32 noundef %10)
  ret i8 %11
}

; Function Attrs: inlinehint mustprogress uwtable
define linkonce_odr noundef i32 @_ZNK6icu_7713UnicodeString6lengthEv(ptr noundef nonnull align 8 dereferenceable(64) %0) #6 comdat align 2 {
  %2 = alloca ptr, align 8
  store ptr %0, ptr %2, align 8, !tbaa !49
  %3 = load ptr, ptr %2, align 8
  %4 = call noundef signext i8 @_ZNK6icu_7713UnicodeString14hasShortLengthEv(ptr noundef nonnull align 8 dereferenceable(64) %3)
  %5 = icmp ne i8 %4, 0
  br i1 %5, label %6, label %8

6:                                                ; preds = %1
  %7 = call noundef i32 @_ZNK6icu_7713UnicodeString14getShortLengthEv(ptr noundef nonnull align 8 dereferenceable(64) %3)
  br label %12

8:                                                ; preds = %1
  %9 = getelementptr inbounds nuw %"class.icu_77::UnicodeString", ptr %3, i32 0, i32 1
  %10 = getelementptr inbounds nuw %struct.anon.0, ptr %9, i32 0, i32 1
  %11 = load i32, ptr %10, align 4, !tbaa !51
  br label %12

12:                                               ; preds = %8, %6
  %13 = phi i32 [ %7, %6 ], [ %11, %8 ]
  ret i32 %13
}

; Function Attrs: inlinehint mustprogress nounwind uwtable
define linkonce_odr noundef signext i8 @_ZNK6icu_7713UnicodeString7isBogusEv(ptr noundef nonnull align 8 dereferenceable(64) %0) #7 comdat align 2 {
  %2 = alloca ptr, align 8
  store ptr %0, ptr %2, align 8, !tbaa !49
  %3 = load ptr, ptr %2, align 8
  %4 = getelementptr inbounds nuw %"class.icu_77::UnicodeString", ptr %3, i32 0, i32 1
  %5 = getelementptr inbounds nuw %struct.anon.0, ptr %4, i32 0, i32 0
  %6 = load i16, ptr %5, align 8, !tbaa !51
  %7 = sext i16 %6 to i32
  %8 = and i32 %7, 1
  %9 = trunc i32 %8 to i8
  ret i8 %9
}

; Function Attrs: inlinehint mustprogress uwtable
define linkonce_odr noundef zeroext i1 @_ZNK6icu_7713UnicodeStringeqERKS0_(ptr noundef nonnull align 8 dereferenceable(64) %0, ptr noundef nonnull align 8 dereferenceable(64) %1) #6 comdat align 2 {
  %3 = alloca i1, align 1
  %4 = alloca ptr, align 8
  %5 = alloca ptr, align 8
  %6 = alloca i32, align 4
  %7 = alloca i32, align 4
  store ptr %0, ptr %4, align 8, !tbaa !49
  store ptr %1, ptr %5, align 8, !tbaa !49
  %8 = load ptr, ptr %4, align 8
  %9 = call noundef signext i8 @_ZNK6icu_7713UnicodeString7isBogusEv(ptr noundef nonnull align 8 dereferenceable(64) %8)
  %10 = icmp ne i8 %9, 0
  br i1 %10, label %11, label %15

11:                                               ; preds = %2
  %12 = load ptr, ptr %5, align 8, !tbaa !49
  %13 = call noundef signext i8 @_ZNK6icu_7713UnicodeString7isBogusEv(ptr noundef nonnull align 8 dereferenceable(64) %12)
  %14 = icmp ne i8 %13, 0
  store i1 %14, ptr %3, align 1
  br label %33

15:                                               ; preds = %2
  call void @llvm.lifetime.start.p0(i64 4, ptr %6) #13
  %16 = call noundef i32 @_ZNK6icu_7713UnicodeString6lengthEv(ptr noundef nonnull align 8 dereferenceable(64) %8)
  store i32 %16, ptr %6, align 4, !tbaa !57
  call void @llvm.lifetime.start.p0(i64 4, ptr %7) #13
  %17 = load ptr, ptr %5, align 8, !tbaa !49
  %18 = call noundef i32 @_ZNK6icu_7713UnicodeString6lengthEv(ptr noundef nonnull align 8 dereferenceable(64) %17)
  store i32 %18, ptr %7, align 4, !tbaa !57
  %19 = load ptr, ptr %5, align 8, !tbaa !49
  %20 = call noundef signext i8 @_ZNK6icu_7713UnicodeString7isBogusEv(ptr noundef nonnull align 8 dereferenceable(64) %19)
  %21 = icmp ne i8 %20, 0
  br i1 %21, label %31, label %22

22:                                               ; preds = %15
  %23 = load i32, ptr %6, align 4, !tbaa !57
  %24 = load i32, ptr %7, align 4, !tbaa !57
  %25 = icmp eq i32 %23, %24
  br i1 %25, label %26, label %31

26:                                               ; preds = %22
  %27 = load ptr, ptr %5, align 8, !tbaa !49
  %28 = load i32, ptr %6, align 4, !tbaa !57
  %29 = call noundef signext i8 @_ZNK6icu_7713UnicodeString8doEqualsERKS0_i(ptr noundef nonnull align 8 dereferenceable(64) %8, ptr noundef nonnull align 8 dereferenceable(64) %27, i32 noundef %28)
  %30 = icmp ne i8 %29, 0
  br label %31

31:                                               ; preds = %26, %22, %15
  %32 = phi i1 [ false, %22 ], [ false, %15 ], [ %30, %26 ]
  store i1 %32, ptr %3, align 1
  call void @llvm.lifetime.end.p0(i64 4, ptr %7) #13
  call void @llvm.lifetime.end.p0(i64 4, ptr %6) #13
  br label %33

33:                                               ; preds = %31, %11
  %34 = load i1, ptr %3, align 1
  ret i1 %34
}

; Function Attrs: mustprogress uwtable
define noundef zeroext i1 @_ZNK6icu_7718RelativeDateFormateqERKNS_6FormatE(ptr noundef nonnull align 8 dereferenceable(456) %0, ptr noundef nonnull align 8 dereferenceable(24) %1) unnamed_addr #1 align 2 {
  %3 = alloca i1, align 1
  %4 = alloca ptr, align 8
  %5 = alloca ptr, align 8
  %6 = alloca ptr, align 8
  store ptr %0, ptr %4, align 8, !tbaa !3
  store ptr %1, ptr %5, align 8, !tbaa !60
  %7 = load ptr, ptr %4, align 8
  %8 = load ptr, ptr %5, align 8, !tbaa !60
  %9 = call noundef zeroext i1 @_ZNK6icu_7710DateFormateqERKNS_6FormatE(ptr noundef nonnull align 8 dereferenceable(48) %7, ptr noundef nonnull align 8 dereferenceable(24) %8)
  br i1 %9, label %10, label %35

10:                                               ; preds = %2
  call void @llvm.lifetime.start.p0(i64 8, ptr %6) #13
  %11 = load ptr, ptr %5, align 8, !tbaa !60
  store ptr %11, ptr %6, align 8, !tbaa !3
  %12 = getelementptr inbounds nuw %"class.icu_77::RelativeDateFormat", ptr %7, i32 0, i32 5
  %13 = load i32, ptr %12, align 8, !tbaa !31
  %14 = load ptr, ptr %6, align 8, !tbaa !3
  %15 = getelementptr inbounds nuw %"class.icu_77::RelativeDateFormat", ptr %14, i32 0, i32 5
  %16 = load i32, ptr %15, align 8, !tbaa !31
  %17 = icmp eq i32 %13, %16
  br i1 %17, label %18, label %33

18:                                               ; preds = %10
  %19 = getelementptr inbounds nuw %"class.icu_77::RelativeDateFormat", ptr %7, i32 0, i32 2
  %20 = load ptr, ptr %6, align 8, !tbaa !3
  %21 = getelementptr inbounds nuw %"class.icu_77::RelativeDateFormat", ptr %20, i32 0, i32 2
  %22 = call noundef zeroext i1 @_ZNK6icu_7713UnicodeStringeqERKS0_(ptr noundef nonnull align 8 dereferenceable(64) %19, ptr noundef nonnull align 8 dereferenceable(64) %21)
  br i1 %22, label %23, label %33

23:                                               ; preds = %18
  %24 = getelementptr inbounds nuw %"class.icu_77::RelativeDateFormat", ptr %7, i32 0, i32 3
  %25 = load ptr, ptr %6, align 8, !tbaa !3
  %26 = getelementptr inbounds nuw %"class.icu_77::RelativeDateFormat", ptr %25, i32 0, i32 3
  %27 = call noundef zeroext i1 @_ZNK6icu_7713UnicodeStringeqERKS0_(ptr noundef nonnull align 8 dereferenceable(64) %24, ptr noundef nonnull align 8 dereferenceable(64) %26)
  br i1 %27, label %28, label %33

28:                                               ; preds = %23
  %29 = getelementptr inbounds nuw %"class.icu_77::RelativeDateFormat", ptr %7, i32 0, i32 7
  %30 = load ptr, ptr %6, align 8, !tbaa !3
  %31 = getelementptr inbounds nuw %"class.icu_77::RelativeDateFormat", ptr %30, i32 0, i32 7
  %32 = call noundef zeroext i1 @_ZNK6icu_776LocaleeqERKS0_(ptr noundef nonnull align 8 dereferenceable(217) %29, ptr noundef nonnull align 8 dereferenceable(217) %31)
  br label %33

33:                                               ; preds = %28, %23, %18, %10
  %34 = phi i1 [ false, %23 ], [ false, %18 ], [ false, %10 ], [ %32, %28 ]
  store i1 %34, ptr %3, align 1
  call void @llvm.lifetime.end.p0(i64 8, ptr %6) #13
  br label %36

35:                                               ; preds = %2
  store i1 false, ptr %3, align 1
  br label %36

36:                                               ; preds = %35, %33
  %37 = load i1, ptr %3, align 1
  ret i1 %37
}