; Function Attrs: mustprogress uwtable
define noundef zeroext i1 @_ZNK6icu_7718RelativeDateFormateqERKNS_6FormatE(ptr noundef nonnull align 8 dereferenceable(456) %0, ptr noundef nonnull align 8 dereferenceable(24) %1) unnamed_addr #1 align 2 {
  %3 = tail call noundef zeroext i1 @_ZNK6icu_7710DateFormateqERKNS_6FormatE(ptr noundef nonnull align 8 dereferenceable(48) %0, ptr noundef nonnull align 8 dereferenceable(24) %1)
  br i1 %3, label %4, label %_ZNK6icu_7713UnicodeStringeqERKS0_.exit.thread

4:                                                ; preds = %2
  %5 = getelementptr inbounds nuw i8, ptr %0, i64 192
  %6 = load i32, ptr %5, align 8, !tbaa !29
  %7 = getelementptr inbounds nuw i8, ptr %1, i64 192
  %8 = load i32, ptr %7, align 8, !tbaa !29
  %9 = icmp eq i32 %6, %8
  br i1 %9, label %10, label %_ZNK6icu_7713UnicodeStringeqERKS0_.exit.thread

10:                                               ; preds = %4
  %11 = getelementptr inbounds nuw i8, ptr %0, i64 56
  %12 = getelementptr inbounds nuw i8, ptr %0, i64 64
  %13 = load i16, ptr %12, align 8, !tbaa !37
  %14 = and i16 %13, 1
  %.not.i = icmp eq i16 %14, 0
  br i1 %.not.i, label %19, label %15

15:                                               ; preds = %10
  %16 = getelementptr inbounds nuw i8, ptr %1, i64 64
  %17 = load i16, ptr %16, align 8, !tbaa !37
  %18 = and i16 %17, 1
  %.not = icmp eq i16 %18, 0
  br i1 %.not, label %_ZNK6icu_7713UnicodeStringeqERKS0_.exit.thread, label %42

19:                                               ; preds = %10
  %20 = icmp slt i16 %13, 0
  %21 = ashr i16 %13, 5
  %22 = sext i16 %21 to i32
  %23 = getelementptr inbounds nuw i8, ptr %0, i64 68
  %24 = load i32, ptr %23, align 4
  %25 = select i1 %20, i32 %24, i32 %22
  %26 = getelementptr inbounds nuw i8, ptr %1, i64 64
  %27 = load i16, ptr %26, align 8, !tbaa !37
  %28 = icmp slt i16 %27, 0
  %29 = ashr i16 %27, 5
  %30 = sext i16 %29 to i32
  %31 = getelementptr inbounds nuw i8, ptr %1, i64 68
  %32 = load i32, ptr %31, align 4
  %33 = select i1 %28, i32 %32, i32 %30
  %34 = and i16 %27, 1
  %.not9.i = icmp eq i16 %34, 0
  %35 = icmp eq i32 %25, %33
  %or.cond.i = and i1 %.not9.i, %35
  br i1 %or.cond.i, label %_ZNK6icu_7713UnicodeStringeqERKS0_.exit, label %_ZNK6icu_7713UnicodeStringeqERKS0_.exit.thread

_ZNK6icu_7713UnicodeStringeqERKS0_.exit:          ; preds = %19
  %36 = and i16 %27, 2
  %.not.i.i.i = icmp eq i16 %36, 0
  %37 = getelementptr inbounds nuw i8, ptr %1, i64 66
  %38 = getelementptr inbounds nuw i8, ptr %1, i64 80
  %39 = load ptr, ptr %38, align 8
  %40 = select i1 %.not.i.i.i, ptr %39, ptr %37
  %41 = tail call noundef signext i8 @_ZNK6icu_7713UnicodeString8doEqualsEPKDsi(ptr noundef nonnull align 8 dereferenceable(64) %11, ptr noundef %40, i32 noundef %25)
  %.not16 = icmp eq i8 %41, 0
  br i1 %.not16, label %_ZNK6icu_7713UnicodeStringeqERKS0_.exit.thread, label %42

42:                                               ; preds = %15, %_ZNK6icu_7713UnicodeStringeqERKS0_.exit
  %43 = getelementptr inbounds nuw i8, ptr %0, i64 120
  %44 = getelementptr inbounds nuw i8, ptr %0, i64 128
  %45 = load i16, ptr %44, align 8, !tbaa !37
  %46 = and i16 %45, 1
  %.not.i8 = icmp eq i16 %46, 0
  br i1 %.not.i8, label %51, label %47

47:                                               ; preds = %42
  %48 = getelementptr inbounds nuw i8, ptr %1, i64 128
  %49 = load i16, ptr %48, align 8, !tbaa !37
  %50 = and i16 %49, 1
  %.not17 = icmp eq i16 %50, 0
  br i1 %.not17, label %_ZNK6icu_7713UnicodeStringeqERKS0_.exit.thread, label %74

51:                                               ; preds = %42
  %52 = icmp slt i16 %45, 0
  %53 = ashr i16 %45, 5
  %54 = sext i16 %53 to i32
  %55 = getelementptr inbounds nuw i8, ptr %0, i64 132
  %56 = load i32, ptr %55, align 4
  %57 = select i1 %52, i32 %56, i32 %54
  %58 = getelementptr inbounds nuw i8, ptr %1, i64 128
  %59 = load i16, ptr %58, align 8, !tbaa !37
  %60 = icmp slt i16 %59, 0
  %61 = ashr i16 %59, 5
  %62 = sext i16 %61 to i32
  %63 = getelementptr inbounds nuw i8, ptr %1, i64 132
  %64 = load i32, ptr %63, align 4
  %65 = select i1 %60, i32 %64, i32 %62
  %66 = and i16 %59, 1
  %.not9.i10 = icmp eq i16 %66, 0
  %67 = icmp eq i32 %57, %65
  %or.cond.i11 = and i1 %.not9.i10, %67
  br i1 %or.cond.i11, label %_ZNK6icu_7713UnicodeStringeqERKS0_.exit13, label %_ZNK6icu_7713UnicodeStringeqERKS0_.exit.thread

_ZNK6icu_7713UnicodeStringeqERKS0_.exit13:        ; preds = %51
  %68 = and i16 %59, 2
  %.not.i.i.i12 = icmp eq i16 %68, 0
  %69 = getelementptr inbounds nuw i8, ptr %1, i64 130
  %70 = getelementptr inbounds nuw i8, ptr %1, i64 144
  %71 = load ptr, ptr %70, align 8
  %72 = select i1 %.not.i.i.i12, ptr %71, ptr %69
  %73 = tail call noundef signext i8 @_ZNK6icu_7713UnicodeString8doEqualsEPKDsi(ptr noundef nonnull align 8 dereferenceable(64) %43, ptr noundef %72, i32 noundef %57)
  %.not18 = icmp eq i8 %73, 0
  br i1 %.not18, label %_ZNK6icu_7713UnicodeStringeqERKS0_.exit.thread, label %74

74:                                               ; preds = %47, %_ZNK6icu_7713UnicodeStringeqERKS0_.exit13
  %75 = getelementptr inbounds nuw i8, ptr %0, i64 200
  %76 = getelementptr inbounds nuw i8, ptr %1, i64 200
  %77 = tail call noundef zeroext i1 @_ZNK6icu_776LocaleeqERKS0_(ptr noundef nonnull align 8 dereferenceable(217) %75, ptr noundef nonnull align 8 dereferenceable(217) %76)
  br label %_ZNK6icu_7713UnicodeStringeqERKS0_.exit.thread

_ZNK6icu_7713UnicodeStringeqERKS0_.exit.thread:   ; preds = %51, %19, %47, %15, %2, %4, %_ZNK6icu_7713UnicodeStringeqERKS0_.exit, %_ZNK6icu_7713UnicodeStringeqERKS0_.exit13, %74
  %.0 = phi i1 [ false, %_ZNK6icu_7713UnicodeStringeqERKS0_.exit13 ], [ false, %_ZNK6icu_7713UnicodeStringeqERKS0_.exit ], [ false, %4 ], [ %77, %74 ], [ false, %2 ], [ false, %15 ], [ false, %47 ], [ false, %19 ], [ false, %51 ]
  ret i1 %.0
}